target datalayout = "e-m:e-p270:32:32-p271:32:32-p272:64:64-i64:64-i128:128-f80:128-n8:16:32:64-S128"
target triple = "x86_64-pc-linux-gnu"

%struct.AVProbeData = type { ptr, ptr, i32, ptr }

; Function Attrs: alwaysinline nounwind willreturn memory(none) uwtable
define internal i32 @av_bswap32(i32 noundef %0) #2 {
  %2 = alloca i32, align 4
  store i32 %0, ptr %2, align 4, !tbaa !9
  %3 = load i32, ptr %2, align 4, !tbaa !9
  %4 = shl i32 %3, 8
  %5 = and i32 %4, 65280
  %6 = load i32, ptr %2, align 4, !tbaa !9
  %7 = lshr i32 %6, 8
  %8 = and i32 %7, 255
  %9 = or i32 %5, %8
  %10 = shl i32 %9, 16
  %11 = load i32, ptr %2, align 4, !tbaa !9
  %12 = lshr i32 %11, 16
  %13 = shl i32 %12, 8
  %14 = and i32 %13, 65280
  %15 = load i32, ptr %2, align 4, !tbaa !9
  %16 = lshr i32 %15, 16
  %17 = lshr i32 %16, 8
  %18 = and i32 %17, 255
  %19 = or i32 %14, %18
  %20 = or i32 %10, %19
  ret i32 %20
}

; Function Attrs: nounwind uwtable
define internal i32 @ty_probe(ptr noundef %0) #0 {
  %2 = alloca i32, align 4
  %3 = alloca ptr, align 8
  %4 = alloca i32, align 4
  %5 = alloca i32, align 4
  store ptr %0, ptr %3, align 8, !tbaa !4
  call void @llvm.lifetime.start.p0(i64 4, ptr %4) #10
  store i32 0, ptr %4, align 4, !tbaa !9
  br label %6

6:                                                ; preds = %47, %1
  %7 = load i32, ptr %4, align 4, !tbaa !9
  %8 = add nsw i32 %7, 12
  %9 = load ptr, ptr %3, align 8, !tbaa !4
  %10 = getelementptr inbounds nuw %struct.AVProbeData, ptr %9, i32 0, i32 2
  %11 = load i32, ptr %10, align 8, !tbaa !11
  %12 = icmp slt i32 %8, %11
  br i1 %12, label %13, label %50

13:                                               ; preds = %6
  %14 = load ptr, ptr %3, align 8, !tbaa !4
  %15 = getelementptr inbounds nuw %struct.AVProbeData, ptr %14, i32 0, i32 1
  %16 = load ptr, ptr %15, align 8, !tbaa !14
  %17 = load i32, ptr %4, align 4, !tbaa !9
  %18 = sext i32 %17 to i64
  %19 = getelementptr inbounds i8, ptr %16, i64 %18
  %20 = load i32, ptr %19, align 1, !tbaa !15
  %21 = call i32 @av_bswap32(i32 noundef %20) #11
  %22 = icmp eq i32 %21, -179930435
  br i1 %22, label %23, label %46

23:                                               ; preds = %13
  %24 = load ptr, ptr %3, align 8, !tbaa !4
  %25 = getelementptr inbounds nuw %struct.AVProbeData, ptr %24, i32 0, i32 1
  %26 = load ptr, ptr %25, align 8, !tbaa !14
  %27 = load i32, ptr %4, align 4, !tbaa !9
  %28 = sext i32 %27 to i64
  %29 = getelementptr inbounds i8, ptr %26, i64 %28
  %30 = getelementptr inbounds i8, ptr %29, i64 4
  %31 = load i32, ptr %30, align 1, !tbaa !15
  %32 = call i32 @av_bswap32(i32 noundef %31) #11
  %33 = icmp eq i32 %32, 2
  br i1 %33, label %34, label %46

34:                                               ; preds = %23
  %35 = load ptr, ptr %3, align 8, !tbaa !4
  %36 = getelementptr inbounds nuw %struct.AVProbeData, ptr %35, i32 0, i32 1
  %37 = load ptr, ptr %36, align 8, !tbaa !14
  %38 = load i32, ptr %4, align 4, !tbaa !9
  %39 = sext i32 %38 to i64
  %40 = getelementptr inbounds i8, ptr %37, i64 %39
  %41 = getelementptr inbounds i8, ptr %40, i64 8
  %42 = load i32, ptr %41, align 1, !tbaa !15
  %43 = call i32 @av_bswap32(i32 noundef %42) #11
  %44 = icmp eq i32 %43, 131072
  br i1 %44, label %45, label %46

45:                                               ; preds = %34
  store i32 100, ptr %2, align 4
  store i32 1, ptr %5, align 4
  br label %51

46:                                               ; preds = %34, %23, %13
  br label %47

47:                                               ; preds = %46
  %48 = load i32, ptr %4, align 4, !tbaa !9
  %49 = add nsw i32 %48, 131072
  store i32 %49, ptr %4, align 4, !tbaa !9
  br label %6, !llvm.loop !16

50:                                               ; preds = %6
  store i32 0, ptr %2, align 4
  store i32 1, ptr %5, align 4
  br label %51

51:                                               ; preds = %50, %45
  call void @llvm.lifetime.end.p0(i64 4, ptr %4) #10
  %52 = load i32, ptr %2, align 4
  ret i32 %52
}