; Function Attrs: nofree norecurse nosync nounwind memory(read, inaccessiblemem: none) uwtable
define internal range(i32 0, 101) i32 @ty_probe(ptr noundef readonly captures(none) %0) #0 {
  %2 = getelementptr inbounds nuw i8, ptr %0, i64 16
  %3 = load i32, ptr %2, align 8, !tbaa !4
  %4 = icmp sgt i32 %3, 12
  br i1 %4, label %.lr.ph, label %._crit_edge

.lr.ph:                                           ; preds = %1
  %5 = getelementptr inbounds nuw i8, ptr %0, i64 8
  %6 = load ptr, ptr %5, align 8, !tbaa !11
  br label %7

7:                                                ; preds = %.lr.ph, %19
  %indvars.iv = phi i64 [ 0, %.lr.ph ], [ %indvars.iv.next, %19 ]
  %8 = getelementptr inbounds nuw i8, ptr %6, i64 %indvars.iv
  %9 = load i32, ptr %8, align 1, !tbaa !12
  %10 = icmp eq i32 %9, -1116059915
  br i1 %10, label %11, label %19

11:                                               ; preds = %7
  %12 = getelementptr inbounds nuw i8, ptr %8, i64 4
  %13 = load i32, ptr %12, align 1, !tbaa !12
  %14 = icmp eq i32 %13, 33554432
  br i1 %14, label %15, label %19

15:                                               ; preds = %11
  %16 = getelementptr inbounds nuw i8, ptr %8, i64 8
  %17 = load i32, ptr %16, align 1, !tbaa !12
  %18 = icmp eq i32 %17, 512
  br i1 %18, label %._crit_edge, label %19

19:                                               ; preds = %7, %11, %15
  %indvars.iv.next = add nuw nsw i64 %indvars.iv, 131072
  %20 = trunc i64 %indvars.iv.next to i32
  %21 = or disjoint i32 %20, 12
  %22 = icmp slt i32 %21, %3
  br i1 %22, label %7, label %._crit_edge, !llvm.loop !13

._crit_edge:                                      ; preds = %15, %19, %1
  %.09 = phi i32 [ 0, %1 ], [ 0, %19 ], [ 100, %15 ]
  ret i32 %.09
}